target datalayout = "e-m:e-p270:32:32-p271:32:32-p272:64:64-i64:64-i128:128-f80:128-n8:16:32:64-S128"
target triple = "x86_64-pc-linux-gnu"

%struct.nghttp2_map = type { ptr, ptr, i64, i32, i32 }
%struct.nghttp2_map_bucket = type { i32, i32, ptr }

; Function Attrs: nounwind uwtable
define dso_local void @nghttp2_map_each_free(ptr noundef %0, ptr noundef %1, ptr noundef %2) #0 {
  %4 = alloca ptr, align 8
  %5 = alloca ptr, align 8
  %6 = alloca ptr, align 8
  %7 = alloca i32, align 4
  %8 = alloca ptr, align 8
  store ptr %0, ptr %4, align 8
  store ptr %1, ptr %5, align 8
  store ptr %2, ptr %6, align 8
  store i32 0, ptr %7, align 4
  br label %9

9:                                                ; preds = %34, %3
  %10 = load i32, ptr %7, align 4
  %11 = load ptr, ptr %4, align 8
  %12 = getelementptr inbounds %struct.nghttp2_map, ptr %11, i32 0, i32 3
  %13 = load i32, ptr %12, align 8
  %14 = icmp ult i32 %10, %13
  br i1 %14, label %15, label %37

15:                                               ; preds = %9
  %16 = load ptr, ptr %4, align 8
  %17 = getelementptr inbounds %struct.nghttp2_map, ptr %16, i32 0, i32 0
  %18 = load ptr, ptr %17, align 8
  %19 = load i32, ptr %7, align 4
  %20 = zext i32 %19 to i64
  %21 = getelementptr inbounds %struct.nghttp2_map_bucket, ptr %18, i64 %20
  store ptr %21, ptr %8, align 8
  %22 = load ptr, ptr %8, align 8
  %23 = getelementptr inbounds %struct.nghttp2_map_bucket, ptr %22, i32 0, i32 2
  %24 = load ptr, ptr %23, align 8
  %25 = icmp eq ptr %24, null
  br i1 %25, label %26, label %27

26:                                               ; preds = %15
  br label %34

27:                                               ; preds = %15
  %28 = load ptr, ptr %5, align 8
  %29 = load ptr, ptr %8, align 8
  %30 = getelementptr inbounds %struct.nghttp2_map_bucket, ptr %29, i32 0, i32 2
  %31 = load ptr, ptr %30, align 8
  %32 = load ptr, ptr %6, align 8
  %33 = call i32 %28(ptr noundef %31, ptr noundef %32)
  br label %34

34:                                               ; preds = %27, %26
  %35 = load i32, ptr %7, align 4
  %36 = add i32 %35, 1
  store i32 %36, ptr %7, align 4
  br label %9, !llvm.loop !5

37:                                               ; preds = %9
  ret void
}